; Function Attrs: mustprogress uwtable
define hidden noundef nonnull align 8 dereferenceable(24) ptr @_ZNK6google8protobuf10Reflection16GetUnknownFieldsERKNS0_7MessageE(ptr noundef nonnull readonly align 8 captures(none) dereferenceable(96) %0, ptr noundef nonnull readonly align 8 captures(none) dereferenceable(16) %1) local_unnamed_addr #3 align 2 {
  %3 = getelementptr inbounds nuw i8, ptr %0, i64 36
  %4 = load i32, ptr %3, align 4, !tbaa !44
  %5 = zext i32 %4 to i64
  %6 = getelementptr inbounds nuw i8, ptr %1, i64 %5
  %7 = load i64, ptr %6, align 8, !tbaa !45
  %8 = and i64 %7, 1
  %.not = icmp eq i64 %8, 0
  br i1 %.not, label %13, label %9, !prof !16

9:                                                ; preds = %2
  %10 = and i64 %7, -4
  %11 = inttoptr i64 %10 to ptr
  %12 = getelementptr inbounds nuw i8, ptr %11, i64 8
  br label %_ZNK6google8protobuf8internal16InternalMetadata14unknown_fieldsINS0_15UnknownFieldSetEEERKT_PFS7_vE.exit

13:                                               ; preds = %2
  %14 = tail call noundef nonnull align 8 dereferenceable(24) ptr @_ZN6google8protobuf15UnknownFieldSet16default_instanceEv()
  br label %_ZNK6google8protobuf8internal16InternalMetadata14unknown_fieldsINS0_15UnknownFieldSetEEERKT_PFS7_vE.exit

_ZNK6google8protobuf8internal16InternalMetadata14unknown_fieldsINS0_15UnknownFieldSetEEERKT_PFS7_vE.exit: ; preds = %9, %13
  %.0.i = phi ptr [ %12, %9 ], [ %14, %13 ]
  ret ptr %.0.i
}